target datalayout = "e-m:e-p270:32:32-p271:32:32-p272:64:64-i64:64-i128:128-f80:128-n8:16:32:64-S128"
target triple = "x86_64-pc-linux-gnu"

%struct.print_field = type { i32, ptr, ptr, i16 }

@print_fields_parsable_print = dso_local global i32 0, align 4
@fields_delimiter = dso_local global ptr null, align 8
@.str = private unnamed_addr constant [3 x i8] c"%s\00", align 1
@.str.1 = private unnamed_addr constant [5 x i8] c"%s%s\00", align 1
@.str.2 = private unnamed_addr constant [4 x i8] c"%s|\00", align 1
@.str.3 = private unnamed_addr constant [7 x i8] c"%*.*s \00", align 1
@.str.5 = private unnamed_addr constant [8 x i8] c"%-*.*s \00", align 1

; Function Attrs: nounwind uwtable
define dso_local void @print_fields_date(ptr noundef %0, ptr noundef %1, i32 noundef %2) #0 {
  %4 = alloca ptr, align 8
  %5 = alloca ptr, align 8
  %6 = alloca i32, align 4
  %7 = alloca i32, align 4
  %8 = alloca ptr, align 8
  %9 = alloca i64, align 8
  %10 = alloca i64, align 8
  store ptr %0, ptr %4, align 8
  store ptr %1, ptr %5, align 8
  store i32 %2, ptr %6, align 4
  call void @llvm.lifetime.start.p0(i64 4, ptr %7) #10
  %11 = load i32, ptr @print_fields_parsable_print, align 4
  %12 = icmp ne i32 %11, 0
  br i1 %12, label %13, label %14

13:                                               ; preds = %3
  br label %19

14:                                               ; preds = %3
  %15 = load ptr, ptr %4, align 8
  %16 = getelementptr inbounds nuw %struct.print_field, ptr %15, i32 0, i32 0
  %17 = load i32, ptr %16, align 8
  %18 = call i32 @llvm.abs.i32(i32 %17, i1 true)
  br label %19

19:                                               ; preds = %14, %13
  %20 = phi i32 [ 256, %13 ], [ %18, %14 ]
  store i32 %20, ptr %7, align 4
  %21 = load i32, ptr %7, align 4
  %22 = add nsw i32 %21, 1
  %23 = zext i32 %22 to i64
  %24 = call ptr @llvm.stacksave.p0()
  store ptr %24, ptr %8, align 8
  %25 = alloca i8, i64 %23, align 16
  store i64 %23, ptr %9, align 8
  call void @llvm.lifetime.start.p0(i64 8, ptr %10) #10
  store i64 0, ptr %10, align 8
  %26 = load ptr, ptr %5, align 8
  %27 = icmp ne ptr %26, null
  br i1 %27, label %28, label %31

28:                                               ; preds = %19
  %29 = load ptr, ptr %5, align 8
  %30 = load i64, ptr %29, align 8
  store i64 %30, ptr %10, align 8
  br label %31

31:                                               ; preds = %28, %19
  %32 = trunc i64 %23 to i32
  call void @slurm_make_time_str(ptr noundef %10, ptr noundef %25, i32 noundef %32)
  %33 = load i32, ptr @print_fields_parsable_print, align 4
  %34 = icmp eq i32 %33, 2
  br i1 %34, label %35, label %40

35:                                               ; preds = %31
  %36 = load i32, ptr %6, align 4
  %37 = icmp ne i32 %36, 0
  br i1 %37, label %38, label %40

38:                                               ; preds = %35
  %39 = call i32 (ptr, ...) @printf(ptr noundef @.str, ptr noundef %25)
  br label %74

40:                                               ; preds = %35, %31
  %41 = load i32, ptr @print_fields_parsable_print, align 4
  %42 = icmp ne i32 %41, 0
  br i1 %42, label %43, label %48

43:                                               ; preds = %40
  %44 = load ptr, ptr @fields_delimiter, align 8
  %45 = icmp ne ptr %44, null
  br i1 %45, label %48, label %46

46:                                               ; preds = %43
  %47 = call i32 (ptr, ...) @printf(ptr noundef @.str.2, ptr noundef %25)
  br label %73

48:                                               ; preds = %43, %40
  %49 = load i32, ptr @print_fields_parsable_print, align 4
  %50 = icmp ne i32 %49, 0
  br i1 %50, label %51, label %57

51:                                               ; preds = %48
  %52 = load ptr, ptr @fields_delimiter, align 8
  %53 = icmp ne ptr %52, null
  br i1 %53, label %54, label %57

54:                                               ; preds = %51
  %55 = load ptr, ptr @fields_delimiter, align 8
  %56 = call i32 (ptr, ...) @printf(ptr noundef @.str.1, ptr noundef %25, ptr noundef %55)
  br label %72

57:                                               ; preds = %51, %48
  %58 = load ptr, ptr %4, align 8
  %59 = getelementptr inbounds nuw %struct.print_field, ptr %58, i32 0, i32 0
  %60 = load i32, ptr %59, align 8
  %61 = load i32, ptr %7, align 4
  %62 = icmp eq i32 %60, %61
  br i1 %62, label %63, label %67

63:                                               ; preds = %57
  %64 = load i32, ptr %7, align 4
  %65 = load i32, ptr %7, align 4
  %66 = call i32 (ptr, ...) @printf(ptr noundef @.str.3, i32 noundef %64, i32 noundef %65, ptr noundef %25)
  br label %71

67:                                               ; preds = %57
  %68 = load i32, ptr %7, align 4
  %69 = load i32, ptr %7, align 4
  %70 = call i32 (ptr, ...) @printf(ptr noundef @.str.5, i32 noundef %68, i32 noundef %69, ptr noundef %25)
  br label %71

71:                                               ; preds = %67, %63
  br label %72

72:                                               ; preds = %71, %54
  br label %73

73:                                               ; preds = %72, %46
  br label %74

74:                                               ; preds = %73, %38
  call void @llvm.lifetime.end.p0(i64 8, ptr %10) #10
  %75 = load ptr, ptr %8, align 8
  call void @llvm.stackrestore.p0(ptr %75)
  call void @llvm.lifetime.end.p0(i64 4, ptr %7) #10
  ret void
}