; Function Attrs: nounwind uwtable
define dso_local void @print_fields_date(ptr noundef readonly captures(none) %0, ptr noundef readonly captures(address_is_null) %1, i32 noundef %2) local_unnamed_addr #0 {
  %4 = alloca i64, align 8
  %5 = load i32, ptr @print_fields_parsable_print, align 4
  %.not = icmp eq i32 %5, 0
  br i1 %.not, label %6, label %9

6:                                                ; preds = %3
  %7 = load i32, ptr %0, align 8
  %8 = tail call i32 @llvm.abs.i32(i32 %7, i1 true)
  br label %9

9:                                                ; preds = %3, %6
  %10 = phi i32 [ %8, %6 ], [ 256, %3 ]
  %11 = add nuw nsw i32 %10, 1
  %12 = zext nneg i32 %11 to i64
  %13 = alloca i8, i64 %12, align 16
  call void @llvm.lifetime.start.p0(i64 8, ptr nonnull %4) #11
  store i64 0, ptr %4, align 8
  %.not18 = icmp eq ptr %1, null
  br i1 %.not18, label %16, label %14

14:                                               ; preds = %9
  %15 = load i64, ptr %1, align 8
  store i64 %15, ptr %4, align 8
  br label %16

16:                                               ; preds = %14, %9
  call void @slurm_make_time_str(ptr noundef nonnull %4, ptr noundef nonnull %13, i32 noundef %11) #11
  %17 = load i32, ptr @print_fields_parsable_print, align 4
  %18 = icmp eq i32 %17, 2
  %19 = icmp ne i32 %2, 0
  %or.cond = and i1 %19, %18
  br i1 %or.cond, label %20, label %22

20:                                               ; preds = %16
  %21 = call i32 (ptr, ...) @printf(ptr noundef nonnull dereferenceable(1) @.str, ptr noundef nonnull %13)
  br label %39

22:                                               ; preds = %16
  %23 = icmp eq i32 %17, 0
  %24 = load ptr, ptr @fields_delimiter, align 8
  %25 = icmp ne ptr %24, null
  %or.cond3 = select i1 %23, i1 true, i1 %25
  br i1 %or.cond3, label %28, label %26

26:                                               ; preds = %22
  %27 = call i32 (ptr, ...) @printf(ptr noundef nonnull dereferenceable(1) @.str.2, ptr noundef nonnull %13)
  br label %39

28:                                               ; preds = %22
  %29 = icmp ne i32 %17, 0
  %or.cond5 = select i1 %29, i1 %25, i1 false
  br i1 %or.cond5, label %30, label %32

30:                                               ; preds = %28
  %31 = call i32 (ptr, ...) @printf(ptr noundef nonnull dereferenceable(1) @.str.1, ptr noundef nonnull %13, ptr noundef nonnull %24)
  br label %39

32:                                               ; preds = %28
  %33 = load i32, ptr %0, align 8
  %34 = icmp eq i32 %33, %10
  br i1 %34, label %35, label %37

35:                                               ; preds = %32
  %36 = call i32 (ptr, ...) @printf(ptr noundef nonnull dereferenceable(1) @.str.3, i32 noundef %10, i32 noundef %10, ptr noundef nonnull %13)
  br label %39

37:                                               ; preds = %32
  %38 = call i32 (ptr, ...) @printf(ptr noundef nonnull dereferenceable(1) @.str.5, i32 noundef %10, i32 noundef %10, ptr noundef nonnull %13)
  br label %39

39:                                               ; preds = %26, %35, %37, %30, %20
  call void @llvm.lifetime.end.p0(i64 8, ptr nonnull %4) #11
  ret void
}